Certificate:
    Data:
        Version: 3 (0x2)
        Serial Number: 4096 (0x1000)
    Signature Algorithm: sha256WithRSAEncryption
        Issuer: C=US, ST=ID, L=Boise, O=Cradlepoint, Inc, OU=Engineering, CN=Cradlepoint ROOTCA DEBUG/emailAddress=adrian@cradlepoint.com
        Validity
            Not Before: Oct  5 17:16:35 2018 GMT
            Not After : Oct  4 17:16:35 2023 GMT
        Subject: C=US, ST=ID, O=Cradlepoint, Inc, OU=Engineering, CN=int-firmware-signing.csr DEBUG/emailAddress=adrian@cradlepoint.com
        Subject Public Key Info:
            Public Key Algorithm: rsaEncryption
                Public-Key: (2048 bit)
                Modulus:
                    00:c0:50:72:76:db:7a:81:9d:5b:2a:be:f7:f5:91:
                    1d:b1:c3:fc:90:05:40:30:49:43:a7:bd:0e:f7:5b:
                    74:92:ed:0f:f8:32:f0:b4:7f:4e:c9:e6:8b:54:72:
                    fd:e0:b0:79:df:6b:e0:b7:23:59:9c:64:61:34:4e:
                    f3:e0:7b:f0:42:e3:8c:2c:3d:ad:0a:b8:1b:60:7a:
                    71:a4:e6:6e:e6:2b:66:b2:5b:0b:10:6d:ce:19:d0:
                    4d:1d:47:70:a5:cd:43:d8:e8:ac:04:07:6e:77:ea:
                    27:cd:fd:27:4c:17:dc:ec:a7:ba:2f:4e:3d:96:d4:
                    f7:c7:28:8e:f3:a8:ec:06:bd:02:b0:60:77:8b:25:
                    f8:26:59:bf:99:f1:08:cf:a3:51:49:2e:c3:e1:10:
                    58:72:33:3d:cf:6a:db:30:37:9d:22:91:82:0b:63:
                    3d:a9:6a:d0:77:df:b4:b2:31:48:15:9e:c6:bc:2a:
                    37:c7:a5:63:45:41:ce:68:a8:73:74:3e:a7:38:08:
                    31:aa:8e:fc:72:29:61:a0:84:ce:1a:12:5f:3b:ae:
                    19:fa:0b:21:2b:7a:26:09:bd:bb:2e:91:d4:75:00:
                    ce:58:8f:c6:85:c2:a9:85:06:44:9b:e7:7b:83:4e:
                    0d:7b:98:b0:24:84:79:20:fa:4a:57:32:87:97:cd:
                    26:89
                Exponent: 65537 (0x10001)
        X509v3 extensions:
            X509v3 Basic Constraints: critical
                CA:TRUE
            X509v3 Subject Key Identifier: 
                C8:A2:48:F3:4F:2B:43:70:EC:3C:30:7D:6E:44:2B:AF:93:47:0C:71
            X509v3 Authority Key Identifier: 
                keyid:57:1E:D4:B4:86:20:C3:04:BD:86:5D:A4:0B:70:74:E4:03:20:52:CA
                DirName:/C=US/ST=ID/L=Boise/O=Cradlepoint, Inc/OU=Engineering/CN=Cradlepoint ROOTCA DEBUG/emailAddress=adrian@cradlepoint.com
                serial:98:3A:64:CC:00:0A:37:A3

            X509v3 Extended Key Usage: 
                Code Signing
    Signature Algorithm: sha256WithRSAEncryption
         1b:ea:75:12:62:b6:c9:b1:47:c0:96:71:47:e4:52:a4:6f:f2:
         58:7d:a2:45:45:21:a4:7e:5a:96:d2:4f:31:0a:20:53:d7:cf:
         cf:7d:59:f7:cb:8e:d4:01:9e:ba:9a:0f:28:13:7d:14:19:da:
         ab:59:c1:82:80:76:b6:af:5a:6e:14:c8:24:f1:19:4c:eb:e4:
         47:8a:ba:5d:36:91:e6:2e:76:5c:5a:7e:e5:24:e5:db:c0:d7:
         d7:f7:d2:35:3b:45:60:36:5f:fc:bb:70:02:48:b4:2e:ae:1a:
         1c:73:19:23:4a:e8:e8:44:7c:e2:be:2f:02:ad:99:f6:03:42:
         b2:00:5e:13:36:6c:7a:6e:24:8d:59:7b:f6:b3:1e:87:6b:39:
         ba:e5:fd:f6:4e:f2:cd:fc:03:22:c1:9d:22:cb:3d:f8:6a:db:
         d2:e5:02:c4:9a:91:40:2c:d4:b2:24:78:03:93:c6:1f:f3:9f:
         b6:07:e9:f1:58:68:31:fe:dd:67:11:1d:7e:91:a5:2d:84:2b:
         3b:42:6a:1c:a2:06:6f:c6:2c:89:b0:4c:59:5f:3d:9a:dc:be:
         ee:79:4f:44:ac:18:65:65:21:95:a8:f5:b8:58:98:c3:d9:6d:
         5a:36:d2:9b:8a:52:4e:87:41:90:a8:46:e8:7b:0e:c3:fe:c0:
         68:c0:29:2c
-----BEGIN CERTIFICATE-----
MIIE5jCCA86gAwIBAgICEAAwDQYJKoZIhvcNAQELBQAwgaUxCzAJBgNVBAYTAlVT
MQswCQYDVQQIDAJJRDEOMAwGA1UEBwwFQm9pc2UxGTAXBgNVBAoMEENyYWRsZXBv
aW50LCBJbmMxFDASBgNVBAsMC0VuZ2luZWVyaW5nMSEwHwYDVQQDDBhDcmFkbGVw
b2ludCBST09UQ0EgREVCVUcxJTAjBgkqhkiG9w0BCQEWFmFkcmlhbkBjcmFkbGVw
b2ludC5jb20wHhcNMTgxMDA1MTcxNjM1WhcNMjMxMDA0MTcxNjM1WjCBmzELMAkG
A1UEBhMCVVMxCzAJBgNVBAgMAklEMRkwFwYDVQQKDBBDcmFkbGVwb2ludCwgSW5j
MRQwEgYDVQQLDAtFbmdpbmVlcmluZzEnMCUGA1UEAwweaW50LWZpcm13YXJlLXNp
Z25pbmcuY3NyIERFQlVHMSUwIwYJKoZIhvcNAQkBFhZhZHJpYW5AY3JhZGxlcG9p
bnQuY29tMIIBIjANBgkqhkiG9w0BAQEFAAOCAQ8AMIIBCgKCAQEAwFBydtt6gZ1b
Kr739ZEdscP8kAVAMElDp70O91t0ku0P+DLwtH9OyeaLVHL94LB532vgtyNZnGRh
NE7z4HvwQuOMLD2tCrgbYHpxpOZu5itmslsLEG3OGdBNHUdwpc1D2OisBAdud+on
zf0nTBfc7Ke6L049ltT3xyiO86jsBr0CsGB3iyX4Jlm/mfEIz6NRSS7D4RBYcjM9
z2rbMDedIpGCC2M9qWrQd9+0sjFIFZ7GvCo3x6VjRUHOaKhzdD6nOAgxqo78cilh
oITOGhJfO64Z+gshK3omCb27LpHUdQDOWI/GhcKphQZEm+d7g04Ne5iwJIR5IPpK
VzKHl80miQIDAQABo4IBJjCCASIwDwYDVR0TAQH/BAUwAwEB/zAdBgNVHQ4EFgQU
yKJI808rQ3DsPDB9bkQrr5NHDHEwgdoGA1UdIwSB0jCBz4AUVx7UtIYgwwS9hl2k
C3B05AMgUsqhgaukgagwgaUxCzAJBgNVBAYTAlVTMQswCQYDVQQIDAJJRDEOMAwG
A1UEBwwFQm9pc2UxGTAXBgNVBAoMEENyYWRsZXBvaW50LCBJbmMxFDASBgNVBAsM
C0VuZ2luZWVyaW5nMSEwHwYDVQQDDBhDcmFkbGVwb2ludCBST09UQ0EgREVCVUcx
JTAjBgkqhkiG9w0BCQEWFmFkcmlhbkBjcmFkbGVwb2ludC5jb22CCQCYOmTMAAo3
ozATBgNVHSUEDDAKBggrBgEFBQcDAzANBgkqhkiG9w0BAQsFAAOCAQEAG+p1EmK2
ybFHwJZxR+RSpG/yWH2iRUUhpH5altJPMQogU9fPz31Z98uO1AGeupoPKBN9FBna
q1nBgoB2tq9abhTIJPEZTOvkR4q6XTaR5i52XFp+5STl28DX1/fSNTtFYDZf/Ltw
Aki0Lq4aHHMZI0ro6ER84r4vAq2Z9gNCsgBeEzZsem4kjVl79rMeh2s5uuX99k7y
zfwDIsGdIss9+Grb0uUCxJqRQCzUsiR4A5PGH/Oftgfp8VhoMf7dZxEdfpGlLYQr
O0JqHKIGb8YsibBMWV89mty+7nlPRKwYZWUhlaj1uFiYw9ltWjbSm4pSTodBkKhG
6HsOw/7AaMApLA==
-----END CERTIFICATE-----
